	.file	"cfunctest.c"
	.text
	.globl	circumf
	.type	circumf, @function
circumf:
.LFB0:
	.cfi_startproc
	endbr64
	pushq	%rbp
	.cfi_def_cfa_offset 16
	.cfi_offset 6, -16
	movq	%rsp, %rbp
	.cfi_def_cfa_register 6
	movl	%edi, -4(%rbp)
	movl	-4(%rbp), %eax
	addl	%eax, %eax
	pxor	%xmm1, %xmm1
	cvtsi2sdl	%eax, %xmm1
	movsd	.LC0(%rip), %xmm0
	mulsd	%xmm1, %xmm0
	cvtsd2ss	%xmm0, %xmm0
	popq	%rbp
	.cfi_def_cfa 7, 8
	ret
	.cfi_endproc
.LFE0:
	.size	circumf, .-circumf
	.globl	area
	.type	area, @function
area:
.LFB1:
	.cfi_startproc
	endbr64
	pushq	%rbp
	.cfi_def_cfa_offset 16
	.cfi_offset 6, -16
	movq	%rsp, %rbp
	.cfi_def_cfa_register 6
	movl	%edi, -4(%rbp)
	movl	-4(%rbp), %eax
	imull	%eax, %eax
	pxor	%xmm1, %xmm1
	cvtsi2sdl	%eax, %xmm1
	movsd	.LC0(%rip), %xmm0
	mulsd	%xmm1, %xmm0
	cvtsd2ss	%xmm0, %xmm0
	popq	%rbp
	.cfi_def_cfa 7, 8
	ret
	.cfi_endproc
.LFE1:
	.size	area, .-area
	.section	.rodata
.LC1:
	.string	"Radius: %d\n"
.LC2:
	.string	"Circumference: %f\n"
.LC3:
	.string	"Area: %f\n"
	.text
	.globl	main
	.type	main, @function
main:
.LFB2:
	.cfi_startproc
	endbr64
	pushq	%rbp
	.cfi_def_cfa_offset 16
	.cfi_offset 6, -16
	movq	%rsp, %rbp
	.cfi_def_cfa_register 6
	subq	$16, %rsp
	movl	$10, -4(%rbp)
	movl	-4(%rbp), %eax
	movl	%eax, %esi
	leaq	.LC1(%rip), %rax
	movq	%rax, %rdi
	movl	$0, %eax
	call	printf@PLT
	movl	-4(%rbp), %eax
	movl	%eax, %edi
	call	circumf
	pxor	%xmm1, %xmm1
	cvtss2sd	%xmm0, %xmm1
	movq	%xmm1, %rax
	movq	%rax, %xmm0
	leaq	.LC2(%rip), %rax
	movq	%rax, %rdi
	movl	$1, %eax
	call	printf@PLT
	movl	-4(%rbp), %eax
	movl	%eax, %edi
	call	area
	pxor	%xmm2, %xmm2
	cvtss2sd	%xmm0, %xmm2
	movq	%xmm2, %rax
	movq	%rax, %xmm0
	leaq	.LC3(%rip), %rax
	movq	%rax, %rdi
	movl	$1, %eax
	call	printf@PLT
	movl	$0, %eax
	leave
	.cfi_def_cfa 7, 8
	ret
	.cfi_endproc
.LFE2:
	.size	main, .-main
	.section	.rodata
	.align 8
.LC0:
	.long	-266631570
	.long	1074340345
	.ident	"GCC: (Ubuntu 13.2.0-23ubuntu4) 13.2.0"
	.section	.note.GNU-stack,"",@progbits
	.section	.note.gnu.property,"a"
	.align 8
	.long	1f - 0f
	.long	4f - 1f
	.long	5
0:
	.string	"GNU"
1:
	.align 8
	.long	0xc0000002
	.long	3f - 2f
2:
	.long	0x3
3:
	.align 8
4:
